; Function Attrs: mustprogress nofree norecurse nosync nounwind willreturn memory(argmem: read) uwtable
define dso_local noundef i32 @_ZNK4node6worker11MessagePort15GetTransferModeEv(ptr nocapture noundef nonnull readonly align 8 dereferenceable(240) %this) unnamed_addr #5 align 2 {
entry:
  %data_.i = getelementptr inbounds i8, ptr %this, i64 88
  %0 = load ptr, ptr %data_.i, align 8
  %cmp.i.not.i.i = icmp ne ptr %0, null
  %state_.i.i = getelementptr inbounds i8, ptr %this, i64 56
  %1 = load i32, ptr %state_.i.i, align 8
  %2 = add i32 %1, -3
  %spec.select.i.i = icmp ult i32 %2, -2
  %.not = select i1 %cmp.i.not.i.i, i1 %spec.select.i.i, i1 false
  %. = zext i1 %.not to i32
  ret i32 %.
}